target datalayout = "e-m:e-p270:32:32-p271:32:32-p272:64:64-i64:64-i128:128-f80:128-n8:16:32:64-S128"
target triple = "x86_64-pc-linux-gnu"

%struct.rb_data_type_struct = type { ptr, %struct.anon, ptr, ptr, i64 }
%struct.anon = type { ptr, ptr, ptr, ptr, [1 x ptr] }
%struct.RString = type { %struct.RBasic, i64, %union.anon }
%struct.RBasic = type { i64, i64 }
%union.anon = type { %struct.anon.0 }
%struct.anon.0 = type { ptr, %union.anon.1 }
%union.anon.1 = type { i64 }
%struct.anon.2 = type { [1 x i8] }

@ossl_cipher_type = internal constant %struct.rb_data_type_struct { ptr @.str.30, %struct.anon { ptr null, ptr @ossl_cipher_free, ptr null, ptr null, [1 x ptr] zeroinitializer }, ptr null, ptr null, i64 33 }, align 8
@rb_eRuntimeError = external global i64, align 8
@.str = private unnamed_addr constant [24 x i8] c"Cipher not initialized!\00", align 1
@eCipherError = internal global i64 0, align 8
@.str.43 = private unnamed_addr constant [34 x i8] c"AEAD not supported by this cipher\00", align 1
@.str.44 = private unnamed_addr constant [43 x i8] c"couldn't set additional authenticated data\00", align 1

; Function Attrs: inlinehint nounwind sspstrong willreturn memory(read) uwtable
define internal i64 @RB_FL_TEST_RAW(i64 noundef %0, i64 noundef %1) #5 {
  %3 = alloca i64, align 8
  %4 = alloca i64, align 8
  store i64 %0, ptr %3, align 8, !tbaa !6
  store i64 %1, ptr %4, align 8, !tbaa !6
  %5 = load i64, ptr %3, align 8, !tbaa !6
  %6 = inttoptr i64 %5 to ptr
  %7 = getelementptr inbounds nuw %struct.RBasic, ptr %6, i32 0, i32 0
  %8 = load i64, ptr %7, align 8, !tbaa !32
  %9 = load i64, ptr %4, align 8, !tbaa !6
  %10 = and i64 %8, %9
  ret i64 %10
}

; Function Attrs: inlinehint nounwind sspstrong willreturn memory(read) uwtable
define internal zeroext i1 @RB_FL_ANY_RAW(i64 noundef %0, i64 noundef %1) #5 {
  %3 = alloca i64, align 8
  %4 = alloca i64, align 8
  store i64 %0, ptr %3, align 8, !tbaa !6
  store i64 %1, ptr %4, align 8, !tbaa !6
  %5 = load i64, ptr %3, align 8, !tbaa !6
  %6 = load i64, ptr %4, align 8, !tbaa !6
  %7 = call i64 @RB_FL_TEST_RAW(i64 noundef %5, i64 noundef %6) #23
  %8 = icmp ne i64 %7, 0
  ret i1 %8
}

; Function Attrs: inlinehint nounwind sspstrong willreturn memory(read, argmem: readwrite) uwtable
define internal void @rbimpl_rstring_getmem(ptr dead_on_unwind noalias writable sret(%struct.RString) align 8 %0, i64 noundef %1) #6 {
  %3 = alloca i64, align 8
  store i64 %1, ptr %3, align 8, !tbaa !6
  %4 = load i64, ptr %3, align 8, !tbaa !6
  %5 = call zeroext i1 @RB_FL_ANY_RAW(i64 noundef %4, i64 noundef 8192) #23
  br i1 %5, label %6, label %9

6:                                                ; preds = %2
  %7 = load i64, ptr %3, align 8, !tbaa !6
  %8 = inttoptr i64 %7 to ptr
  call void @llvm.memcpy.p0.p0.i64(ptr align 8 %0, ptr align 8 %8, i64 40, i1 false), !tbaa.struct !29
  br label %20

9:                                                ; preds = %2
  %10 = load i64, ptr %3, align 8, !tbaa !6
  %11 = call i64 @RSTRING_LEN(i64 noundef %10) #23
  %12 = getelementptr inbounds nuw %struct.RString, ptr %0, i32 0, i32 1
  store i64 %11, ptr %12, align 8, !tbaa !30
  %13 = load i64, ptr %3, align 8, !tbaa !6
  %14 = inttoptr i64 %13 to ptr
  %15 = getelementptr inbounds nuw %struct.RString, ptr %14, i32 0, i32 2
  %16 = getelementptr inbounds nuw %struct.anon.2, ptr %15, i32 0, i32 0
  %17 = getelementptr inbounds [1 x i8], ptr %16, i64 0, i64 0
  %18 = getelementptr inbounds nuw %struct.RString, ptr %0, i32 0, i32 2
  %19 = getelementptr inbounds nuw %struct.anon.0, ptr %18, i32 0, i32 0
  store ptr %17, ptr %19, align 8, !tbaa !15
  br label %20

20:                                               ; preds = %9, %6
  ret void
}

; Function Attrs: nounwind sspstrong uwtable
define internal i32 @ossl_cipher_update_long(ptr noundef %0, ptr noundef %1, ptr noundef %2, ptr noundef %3, i64 noundef %4) #0 {
  %6 = alloca i32, align 4
  %7 = alloca ptr, align 8
  %8 = alloca ptr, align 8
  %9 = alloca ptr, align 8
  %10 = alloca ptr, align 8
  %11 = alloca i64, align 8
  %12 = alloca i32, align 4
  %13 = alloca i32, align 4
  %14 = alloca i64, align 8
  %15 = alloca i32, align 4
  %16 = alloca i32, align 4
  store ptr %0, ptr %7, align 8, !tbaa !10
  store ptr %1, ptr %8, align 8, !tbaa !16
  store ptr %2, ptr %9, align 8, !tbaa !24
  store ptr %3, ptr %10, align 8, !tbaa !16
  store i64 %4, ptr %11, align 8, !tbaa !6
  call void @llvm.lifetime.start.p0(i64 4, ptr %12) #20
  call void @llvm.lifetime.start.p0(i64 4, ptr %13) #20
  store i32 1073741824, ptr %13, align 4, !tbaa !22
  call void @llvm.lifetime.start.p0(i64 8, ptr %14) #20
  store i64 0, ptr %14, align 8, !tbaa !6
  br label %17

17:                                               ; preds = %56, %5
  call void @llvm.lifetime.start.p0(i64 4, ptr %15) #20
  %18 = load i64, ptr %11, align 8, !tbaa !6
  %19 = load i32, ptr %13, align 4, !tbaa !22
  %20 = sext i32 %19 to i64
  %21 = icmp sgt i64 %18, %20
  br i1 %21, label %22, label %24

22:                                               ; preds = %17
  %23 = load i32, ptr %13, align 4, !tbaa !22
  br label %27

24:                                               ; preds = %17
  %25 = load i64, ptr %11, align 8, !tbaa !6
  %26 = trunc i64 %25 to i32
  br label %27

27:                                               ; preds = %24, %22
  %28 = phi i32 [ %23, %22 ], [ %26, %24 ]
  store i32 %28, ptr %15, align 4, !tbaa !22
  %29 = load ptr, ptr %7, align 8, !tbaa !10
  %30 = load ptr, ptr %8, align 8, !tbaa !16
  %31 = icmp ne ptr %30, null
  br i1 %31, label %32, label %36

32:                                               ; preds = %27
  %33 = load ptr, ptr %8, align 8, !tbaa !16
  %34 = load i64, ptr %14, align 8, !tbaa !6
  %35 = getelementptr inbounds i8, ptr %33, i64 %34
  br label %37

36:                                               ; preds = %27
  br label %37

37:                                               ; preds = %36, %32
  %38 = phi ptr [ %35, %32 ], [ null, %36 ]
  %39 = load ptr, ptr %10, align 8, !tbaa !16
  %40 = load i32, ptr %15, align 4, !tbaa !22
  %41 = call i32 @EVP_CipherUpdate(ptr noundef %29, ptr noundef %38, ptr noundef %12, ptr noundef %39, i32 noundef %40)
  %42 = icmp ne i32 %41, 0
  br i1 %42, label %44, label %43

43:                                               ; preds = %37
  store i32 0, ptr %6, align 4
  store i32 1, ptr %16, align 4
  br label %53

44:                                               ; preds = %37
  %45 = load i32, ptr %12, align 4, !tbaa !22
  %46 = sext i32 %45 to i64
  %47 = load i64, ptr %14, align 8, !tbaa !6
  %48 = add nsw i64 %47, %46
  store i64 %48, ptr %14, align 8, !tbaa !6
  %49 = load i32, ptr %15, align 4, !tbaa !22
  %50 = load ptr, ptr %10, align 8, !tbaa !16
  %51 = sext i32 %49 to i64
  %52 = getelementptr inbounds i8, ptr %50, i64 %51
  store ptr %52, ptr %10, align 8, !tbaa !16
  store i32 0, ptr %16, align 4
  br label %53

53:                                               ; preds = %44, %43
  call void @llvm.lifetime.end.p0(i64 4, ptr %15) #20
  %54 = load i32, ptr %16, align 4
  switch i32 %54, label %69 [
    i32 0, label %55
  ]

55:                                               ; preds = %53
  br label %56

56:                                               ; preds = %55
  %57 = load i32, ptr %13, align 4, !tbaa !22
  %58 = sext i32 %57 to i64
  %59 = load i64, ptr %11, align 8, !tbaa !6
  %60 = sub nsw i64 %59, %58
  store i64 %60, ptr %11, align 8, !tbaa !6
  %61 = icmp sgt i64 %60, 0
  br i1 %61, label %17, label %62, !llvm.loop !47

62:                                               ; preds = %56
  %63 = load ptr, ptr %9, align 8, !tbaa !24
  %64 = icmp ne ptr %63, null
  br i1 %64, label %65, label %68

65:                                               ; preds = %62
  %66 = load i64, ptr %14, align 8, !tbaa !6
  %67 = load ptr, ptr %9, align 8, !tbaa !24
  store i64 %66, ptr %67, align 8, !tbaa !6
  br label %68

68:                                               ; preds = %65, %62
  store i32 1, ptr %6, align 4
  store i32 1, ptr %16, align 4
  br label %69

69:                                               ; preds = %68, %53
  call void @llvm.lifetime.end.p0(i64 8, ptr %14) #20
  call void @llvm.lifetime.end.p0(i64 4, ptr %13) #20
  call void @llvm.lifetime.end.p0(i64 4, ptr %12) #20
  %70 = load i32, ptr %6, align 4
  ret i32 %70
}

; Function Attrs: inlinehint nounwind sspstrong willreturn memory(read) uwtable
define internal i64 @RSTRING_LEN(i64 noundef %0) #5 {
  %2 = alloca i64, align 8
  store i64 %0, ptr %2, align 8, !tbaa !6
  %3 = load i64, ptr %2, align 8, !tbaa !6
  %4 = inttoptr i64 %3 to ptr
  %5 = getelementptr inbounds nuw %struct.RString, ptr %4, i32 0, i32 1
  %6 = load i64, ptr %5, align 8, !tbaa !30
  ret i64 %6
}

; Function Attrs: inlinehint nounwind sspstrong uwtable
define internal ptr @RSTRING_PTR(i64 noundef %0) #4 {
  %2 = alloca i64, align 8
  %3 = alloca ptr, align 8
  %4 = alloca %struct.RString, align 8
  store i64 %0, ptr %2, align 8, !tbaa !6
  call void @llvm.lifetime.start.p0(i64 8, ptr %3) #20
  %5 = load i64, ptr %2, align 8, !tbaa !6
  call void @rbimpl_rstring_getmem(ptr dead_on_unwind writable sret(%struct.RString) align 8 %4, i64 noundef %5) #22
  %6 = getelementptr inbounds nuw %struct.RString, ptr %4, i32 0, i32 2
  %7 = getelementptr inbounds nuw %struct.anon.0, ptr %6, i32 0, i32 0
  %8 = load ptr, ptr %7, align 8, !tbaa !15
  store ptr %8, ptr %3, align 8, !tbaa !16
  %9 = load ptr, ptr %3, align 8, !tbaa !16
  call void @llvm.lifetime.end.p0(i64 8, ptr %3) #20
  ret ptr %9
}

; Function Attrs: nounwind sspstrong uwtable
define internal i64 @ossl_cipher_set_auth_data(i64 noundef %0, i64 noundef %1) #0 {
  %3 = alloca i64, align 8
  %4 = alloca i64, align 8
  %5 = alloca ptr, align 8
  %6 = alloca ptr, align 8
  %7 = alloca i64, align 8
  %8 = alloca i64, align 8
  store i64 %0, ptr %3, align 8, !tbaa !6
  store i64 %1, ptr %4, align 8, !tbaa !6
  call void @llvm.lifetime.start.p0(i64 8, ptr %5) #20
  call void @llvm.lifetime.start.p0(i64 8, ptr %6) #20
  call void @llvm.lifetime.start.p0(i64 8, ptr %7) #20
  call void @llvm.lifetime.start.p0(i64 8, ptr %8) #20
  %9 = call i64 @rb_string_value(ptr noundef %4)
  %10 = load i64, ptr %4, align 8, !tbaa !6
  %11 = call ptr @RSTRING_PTR(i64 noundef %10)
  store ptr %11, ptr %6, align 8, !tbaa !16
  %12 = load i64, ptr %4, align 8, !tbaa !6
  %13 = call i64 @RSTRING_LEN(i64 noundef %12) #23
  store i64 %13, ptr %7, align 8, !tbaa !6
  br label %14

14:                                               ; preds = %2
  br label %15

15:                                               ; preds = %14
  %16 = load i64, ptr %3, align 8, !tbaa !6
  %17 = call ptr @rb_check_typeddata(i64 noundef %16, ptr noundef @ossl_cipher_type)
  store ptr %17, ptr %5, align 8, !tbaa !10
  br label %18

18:                                               ; preds = %15
  br label %19

19:                                               ; preds = %18
  %20 = load ptr, ptr %5, align 8, !tbaa !10
  %21 = icmp ne ptr %20, null
  br i1 %21, label %24, label %22

22:                                               ; preds = %19
  %23 = load i64, ptr @rb_eRuntimeError, align 8, !tbaa !6
  call void (i64, ptr, ...) @ossl_raise(i64 noundef %23, ptr noundef @.str) #21
  unreachable

24:                                               ; preds = %19
  br label %25

25:                                               ; preds = %24
  br label %26

26:                                               ; preds = %25
  %27 = load ptr, ptr %5, align 8, !tbaa !10
  %28 = call ptr @EVP_CIPHER_CTX_cipher(ptr noundef %27)
  %29 = call i64 @EVP_CIPHER_get_flags(ptr noundef %28)
  %30 = and i64 %29, 2097152
  %31 = icmp ne i64 %30, 0
  br i1 %31, label %34, label %32

32:                                               ; preds = %26
  %33 = load i64, ptr @eCipherError, align 8, !tbaa !6
  call void (i64, ptr, ...) @ossl_raise(i64 noundef %33, ptr noundef @.str.43) #21
  unreachable

34:                                               ; preds = %26
  %35 = load ptr, ptr %5, align 8, !tbaa !10
  %36 = load ptr, ptr %6, align 8, !tbaa !16
  %37 = load i64, ptr %7, align 8, !tbaa !6
  %38 = call i32 @ossl_cipher_update_long(ptr noundef %35, ptr noundef null, ptr noundef %8, ptr noundef %36, i64 noundef %37)
  %39 = icmp ne i32 %38, 0
  br i1 %39, label %42, label %40

40:                                               ; preds = %34
  %41 = load i64, ptr @eCipherError, align 8, !tbaa !6
  call void (i64, ptr, ...) @ossl_raise(i64 noundef %41, ptr noundef @.str.44) #21
  unreachable

42:                                               ; preds = %34
  %43 = load i64, ptr %4, align 8, !tbaa !6
  call void @llvm.lifetime.end.p0(i64 8, ptr %8) #20
  call void @llvm.lifetime.end.p0(i64 8, ptr %7) #20
  call void @llvm.lifetime.end.p0(i64 8, ptr %6) #20
  call void @llvm.lifetime.end.p0(i64 8, ptr %5) #20
  ret i64 %43
}