; Function Attrs: nounwind sspstrong uwtable
define internal i64 @ossl_cipher_set_auth_data(i64 noundef %0, i64 noundef %1) #0 {
  %3 = alloca i32, align 4
  %4 = alloca i64, align 8
  store i64 %1, ptr %4, align 8, !tbaa !6
  %5 = call i64 @rb_string_value(ptr noundef nonnull %4) #11
  %6 = load i64, ptr %4, align 8, !tbaa !6
  %7 = inttoptr i64 %6 to ptr
  %8 = load i64, ptr %7, align 8, !tbaa !10, !noalias !50
  %9 = and i64 %8, 8192
  %.not.i.i = icmp eq i64 %9, 0
  %10 = getelementptr inbounds nuw i8, ptr %7, i64 24
  br i1 %.not.i.i, label %RSTRING_PTR.exit, label %11

11:                                               ; preds = %2
  %.sroa.2.0.copyload.i = load ptr, ptr %10, align 8
  br label %RSTRING_PTR.exit

RSTRING_PTR.exit:                                 ; preds = %2, %11
  %.sroa.2.0.i = phi ptr [ %.sroa.2.0.copyload.i, %11 ], [ %10, %2 ]
  %12 = getelementptr inbounds nuw i8, ptr %7, i64 16
  %13 = load i64, ptr %12, align 8, !tbaa !26
  %14 = call ptr @rb_check_typeddata(i64 noundef %0, ptr noundef nonnull @ossl_cipher_type) #11
  %.not = icmp eq ptr %14, null
  br i1 %.not, label %15, label %17

15:                                               ; preds = %RSTRING_PTR.exit
  %16 = load i64, ptr @rb_eRuntimeError, align 8, !tbaa !6
  call void (i64, ptr, ...) @ossl_raise(i64 noundef %16, ptr noundef nonnull @.str) #12
  unreachable

17:                                               ; preds = %RSTRING_PTR.exit
  %18 = call ptr @EVP_CIPHER_CTX_cipher(ptr noundef nonnull %14) #11
  %19 = call i64 @EVP_CIPHER_get_flags(ptr noundef %18) #11
  %20 = and i64 %19, 2097152
  %.not5 = icmp eq i64 %20, 0
  br i1 %.not5, label %21, label %23

21:                                               ; preds = %17
  %22 = load i64, ptr @eCipherError, align 8, !tbaa !6
  call void (i64, ptr, ...) @ossl_raise(i64 noundef %22, ptr noundef nonnull @.str.43) #12
  unreachable

23:                                               ; preds = %17
  call void @llvm.lifetime.start.p0(i64 4, ptr nonnull %3) #11
  br label %.split.us.i

.split.us.i:                                      ; preds = %27, %23
  %.024.us.i = phi i64 [ %30, %27 ], [ %13, %23 ]
  %.022.us.i = phi ptr [ %29, %27 ], [ %.sroa.2.0.i, %23 ]
  %24 = call i64 @llvm.smin.i64(i64 %.024.us.i, i64 1073741824)
  %25 = trunc i64 %24 to i32
  %26 = call i32 @EVP_CipherUpdate(ptr noundef nonnull %14, ptr noundef null, ptr noundef nonnull %3, ptr noundef %.022.us.i, i32 noundef %25) #11
  %.not27.not.us.i = icmp eq i32 %26, 0
  br i1 %.not27.not.us.i, label %32, label %27

27:                                               ; preds = %.split.us.i
  %sext.us.i = shl i64 %24, 32
  %28 = ashr exact i64 %sext.us.i, 32
  %29 = getelementptr inbounds i8, ptr %.022.us.i, i64 %28
  %30 = add nsw i64 %.024.us.i, -1073741824
  %31 = icmp sgt i64 %.024.us.i, 1073741824
  br i1 %31, label %.split.us.i, label %34, !llvm.loop !41

32:                                               ; preds = %.split.us.i
  call void @llvm.lifetime.end.p0(i64 4, ptr nonnull %3) #11
  %33 = load i64, ptr @eCipherError, align 8, !tbaa !6
  call void (i64, ptr, ...) @ossl_raise(i64 noundef %33, ptr noundef nonnull @.str.44) #12
  unreachable

34:                                               ; preds = %27
  call void @llvm.lifetime.end.p0(i64 4, ptr nonnull %3) #11
  %35 = load i64, ptr %4, align 8, !tbaa !6
  ret i64 %35
}